target datalayout = "e-m:e-p270:32:32-p271:32:32-p272:64:64-i64:64-i128:128-f80:128-n8:16:32:64-S128"
target triple = "x86_64-pc-linux-gnu"

%"struct.pxrInternal_v0_24__pxrReserved__::HgiTextureBindDesc" = type <{ %"class.std::vector.18", %"class.std::vector.23", i32, i32, i32, i8, [3 x i8] }>
%"class.std::vector.18" = type { %"struct.std::_Vector_base.19" }
%"struct.std::_Vector_base.19" = type { %"struct.std::_Vector_base<pxrInternal_v0_24__pxrReserved__::HgiHandle<pxrInternal_v0_24__pxrReserved__::HgiTexture>, std::allocator<pxrInternal_v0_24__pxrReserved__::HgiHandle<pxrInternal_v0_24__pxrReserved__::HgiTexture>>>::_Vector_impl" }
%"struct.std::_Vector_base<pxrInternal_v0_24__pxrReserved__::HgiHandle<pxrInternal_v0_24__pxrReserved__::HgiTexture>, std::allocator<pxrInternal_v0_24__pxrReserved__::HgiHandle<pxrInternal_v0_24__pxrReserved__::HgiTexture>>>::_Vector_impl" = type { %"struct.std::_Vector_base<pxrInternal_v0_24__pxrReserved__::HgiHandle<pxrInternal_v0_24__pxrReserved__::HgiTexture>, std::allocator<pxrInternal_v0_24__pxrReserved__::HgiHandle<pxrInternal_v0_24__pxrReserved__::HgiTexture>>>::_Vector_impl_data" }
%"struct.std::_Vector_base<pxrInternal_v0_24__pxrReserved__::HgiHandle<pxrInternal_v0_24__pxrReserved__::HgiTexture>, std::allocator<pxrInternal_v0_24__pxrReserved__::HgiHandle<pxrInternal_v0_24__pxrReserved__::HgiTexture>>>::_Vector_impl_data" = type { ptr, ptr, ptr }
%"class.std::vector.23" = type { %"struct.std::_Vector_base.24" }
%"struct.std::_Vector_base.24" = type { %"struct.std::_Vector_base<pxrInternal_v0_24__pxrReserved__::HgiHandle<pxrInternal_v0_24__pxrReserved__::HgiSampler>, std::allocator<pxrInternal_v0_24__pxrReserved__::HgiHandle<pxrInternal_v0_24__pxrReserved__::HgiSampler>>>::_Vector_impl" }
%"struct.std::_Vector_base<pxrInternal_v0_24__pxrReserved__::HgiHandle<pxrInternal_v0_24__pxrReserved__::HgiSampler>, std::allocator<pxrInternal_v0_24__pxrReserved__::HgiHandle<pxrInternal_v0_24__pxrReserved__::HgiSampler>>>::_Vector_impl" = type { %"struct.std::_Vector_base<pxrInternal_v0_24__pxrReserved__::HgiHandle<pxrInternal_v0_24__pxrReserved__::HgiSampler>, std::allocator<pxrInternal_v0_24__pxrReserved__::HgiHandle<pxrInternal_v0_24__pxrReserved__::HgiSampler>>>::_Vector_impl_data" }
%"struct.std::_Vector_base<pxrInternal_v0_24__pxrReserved__::HgiHandle<pxrInternal_v0_24__pxrReserved__::HgiSampler>, std::allocator<pxrInternal_v0_24__pxrReserved__::HgiHandle<pxrInternal_v0_24__pxrReserved__::HgiSampler>>>::_Vector_impl_data" = type { ptr, ptr, ptr }

; Function Attrs: mustprogress nounwind uwtable
define linkonce_odr void @_ZNSt15__new_allocatorIN32pxrInternal_v0_24__pxrReserved__9HgiHandleINS0_10HgiSamplerEEEEC2Ev(ptr noundef nonnull align 1 dereferenceable(1) %0) unnamed_addr #1 comdat align 2 {
  %2 = alloca ptr, align 8
  store ptr %0, ptr %2, align 8
  ret void
}

; Function Attrs: mustprogress nounwind uwtable
define linkonce_odr void @_ZNSt15__new_allocatorIN32pxrInternal_v0_24__pxrReserved__9HgiHandleINS0_10HgiTextureEEEEC2Ev(ptr noundef nonnull align 1 dereferenceable(1) %0) unnamed_addr #1 comdat align 2 {
  %2 = alloca ptr, align 8
  store ptr %0, ptr %2, align 8
  ret void
}

; Function Attrs: mustprogress nounwind uwtable
define linkonce_odr void @_ZNSt12_Vector_baseIN32pxrInternal_v0_24__pxrReserved__9HgiHandleINS0_10HgiSamplerEEESaIS3_EE17_Vector_impl_dataC2Ev(ptr noundef nonnull align 8 dereferenceable(24) %0) unnamed_addr #1 comdat align 2 {
  %2 = alloca ptr, align 8
  store ptr %0, ptr %2, align 8
  %3 = load ptr, ptr %2, align 8
  %4 = getelementptr inbounds nuw %"struct.std::_Vector_base<pxrInternal_v0_24__pxrReserved__::HgiHandle<pxrInternal_v0_24__pxrReserved__::HgiSampler>, std::allocator<pxrInternal_v0_24__pxrReserved__::HgiHandle<pxrInternal_v0_24__pxrReserved__::HgiSampler>>>::_Vector_impl_data", ptr %3, i32 0, i32 0
  store ptr null, ptr %4, align 8
  %5 = getelementptr inbounds nuw %"struct.std::_Vector_base<pxrInternal_v0_24__pxrReserved__::HgiHandle<pxrInternal_v0_24__pxrReserved__::HgiSampler>, std::allocator<pxrInternal_v0_24__pxrReserved__::HgiHandle<pxrInternal_v0_24__pxrReserved__::HgiSampler>>>::_Vector_impl_data", ptr %3, i32 0, i32 1
  store ptr null, ptr %5, align 8
  %6 = getelementptr inbounds nuw %"struct.std::_Vector_base<pxrInternal_v0_24__pxrReserved__::HgiHandle<pxrInternal_v0_24__pxrReserved__::HgiSampler>, std::allocator<pxrInternal_v0_24__pxrReserved__::HgiHandle<pxrInternal_v0_24__pxrReserved__::HgiSampler>>>::_Vector_impl_data", ptr %3, i32 0, i32 2
  store ptr null, ptr %6, align 8
  ret void
}

; Function Attrs: mustprogress nounwind uwtable
define linkonce_odr void @_ZNSaIN32pxrInternal_v0_24__pxrReserved__9HgiHandleINS_10HgiSamplerEEEEC2Ev(ptr noundef nonnull align 1 dereferenceable(1) %0) unnamed_addr #1 comdat align 2 {
  %2 = alloca ptr, align 8
  store ptr %0, ptr %2, align 8
  %3 = load ptr, ptr %2, align 8
  call void @_ZNSt15__new_allocatorIN32pxrInternal_v0_24__pxrReserved__9HgiHandleINS0_10HgiSamplerEEEEC2Ev(ptr noundef nonnull align 1 dereferenceable(1) %3) #10
  ret void
}

; Function Attrs: mustprogress nounwind uwtable
define linkonce_odr void @_ZNSt12_Vector_baseIN32pxrInternal_v0_24__pxrReserved__9HgiHandleINS0_10HgiTextureEEESaIS3_EE17_Vector_impl_dataC2Ev(ptr noundef nonnull align 8 dereferenceable(24) %0) unnamed_addr #1 comdat align 2 {
  %2 = alloca ptr, align 8
  store ptr %0, ptr %2, align 8
  %3 = load ptr, ptr %2, align 8
  %4 = getelementptr inbounds nuw %"struct.std::_Vector_base<pxrInternal_v0_24__pxrReserved__::HgiHandle<pxrInternal_v0_24__pxrReserved__::HgiTexture>, std::allocator<pxrInternal_v0_24__pxrReserved__::HgiHandle<pxrInternal_v0_24__pxrReserved__::HgiTexture>>>::_Vector_impl_data", ptr %3, i32 0, i32 0
  store ptr null, ptr %4, align 8
  %5 = getelementptr inbounds nuw %"struct.std::_Vector_base<pxrInternal_v0_24__pxrReserved__::HgiHandle<pxrInternal_v0_24__pxrReserved__::HgiTexture>, std::allocator<pxrInternal_v0_24__pxrReserved__::HgiHandle<pxrInternal_v0_24__pxrReserved__::HgiTexture>>>::_Vector_impl_data", ptr %3, i32 0, i32 1
  store ptr null, ptr %5, align 8
  %6 = getelementptr inbounds nuw %"struct.std::_Vector_base<pxrInternal_v0_24__pxrReserved__::HgiHandle<pxrInternal_v0_24__pxrReserved__::HgiTexture>, std::allocator<pxrInternal_v0_24__pxrReserved__::HgiHandle<pxrInternal_v0_24__pxrReserved__::HgiTexture>>>::_Vector_impl_data", ptr %3, i32 0, i32 2
  store ptr null, ptr %6, align 8
  ret void
}

; Function Attrs: mustprogress nounwind uwtable
define linkonce_odr void @_ZNSaIN32pxrInternal_v0_24__pxrReserved__9HgiHandleINS_10HgiTextureEEEEC2Ev(ptr noundef nonnull align 1 dereferenceable(1) %0) unnamed_addr #1 comdat align 2 {
  %2 = alloca ptr, align 8
  store ptr %0, ptr %2, align 8
  %3 = load ptr, ptr %2, align 8
  call void @_ZNSt15__new_allocatorIN32pxrInternal_v0_24__pxrReserved__9HgiHandleINS0_10HgiTextureEEEEC2Ev(ptr noundef nonnull align 1 dereferenceable(1) %3) #10
  ret void
}

; Function Attrs: mustprogress nounwind uwtable
define linkonce_odr void @_ZNSt12_Vector_baseIN32pxrInternal_v0_24__pxrReserved__9HgiHandleINS0_10HgiSamplerEEESaIS3_EE12_Vector_implC2Ev(ptr noundef nonnull align 8 dereferenceable(24) %0) unnamed_addr #1 comdat align 2 {
  %2 = alloca ptr, align 8
  store ptr %0, ptr %2, align 8
  %3 = load ptr, ptr %2, align 8
  call void @_ZNSaIN32pxrInternal_v0_24__pxrReserved__9HgiHandleINS_10HgiSamplerEEEEC2Ev(ptr noundef nonnull align 1 dereferenceable(1) %3) #10
  call void @_ZNSt12_Vector_baseIN32pxrInternal_v0_24__pxrReserved__9HgiHandleINS0_10HgiSamplerEEESaIS3_EE17_Vector_impl_dataC2Ev(ptr noundef nonnull align 8 dereferenceable(24) %3) #10
  ret void
}

; Function Attrs: mustprogress nounwind uwtable
define linkonce_odr void @_ZNSt12_Vector_baseIN32pxrInternal_v0_24__pxrReserved__9HgiHandleINS0_10HgiTextureEEESaIS3_EE12_Vector_implC2Ev(ptr noundef nonnull align 8 dereferenceable(24) %0) unnamed_addr #1 comdat align 2 {
  %2 = alloca ptr, align 8
  store ptr %0, ptr %2, align 8
  %3 = load ptr, ptr %2, align 8
  call void @_ZNSaIN32pxrInternal_v0_24__pxrReserved__9HgiHandleINS_10HgiTextureEEEEC2Ev(ptr noundef nonnull align 1 dereferenceable(1) %3) #10
  call void @_ZNSt12_Vector_baseIN32pxrInternal_v0_24__pxrReserved__9HgiHandleINS0_10HgiTextureEEESaIS3_EE17_Vector_impl_dataC2Ev(ptr noundef nonnull align 8 dereferenceable(24) %3) #10
  ret void
}

; Function Attrs: mustprogress nounwind uwtable
define linkonce_odr void @_ZNSt12_Vector_baseIN32pxrInternal_v0_24__pxrReserved__9HgiHandleINS0_10HgiSamplerEEESaIS3_EEC2Ev(ptr noundef nonnull align 8 dereferenceable(24) %0) unnamed_addr #1 comdat align 2 {
  %2 = alloca ptr, align 8
  store ptr %0, ptr %2, align 8
  %3 = load ptr, ptr %2, align 8
  %4 = getelementptr inbounds nuw %"struct.std::_Vector_base.24", ptr %3, i32 0, i32 0
  call void @_ZNSt12_Vector_baseIN32pxrInternal_v0_24__pxrReserved__9HgiHandleINS0_10HgiSamplerEEESaIS3_EE12_Vector_implC2Ev(ptr noundef nonnull align 8 dereferenceable(24) %4) #10
  ret void
}

; Function Attrs: mustprogress nounwind uwtable
define linkonce_odr void @_ZNSt12_Vector_baseIN32pxrInternal_v0_24__pxrReserved__9HgiHandleINS0_10HgiTextureEEESaIS3_EEC2Ev(ptr noundef nonnull align 8 dereferenceable(24) %0) unnamed_addr #1 comdat align 2 {
  %2 = alloca ptr, align 8
  store ptr %0, ptr %2, align 8
  %3 = load ptr, ptr %2, align 8
  %4 = getelementptr inbounds nuw %"struct.std::_Vector_base.19", ptr %3, i32 0, i32 0
  call void @_ZNSt12_Vector_baseIN32pxrInternal_v0_24__pxrReserved__9HgiHandleINS0_10HgiTextureEEESaIS3_EE12_Vector_implC2Ev(ptr noundef nonnull align 8 dereferenceable(24) %4) #10
  ret void
}

; Function Attrs: mustprogress nounwind uwtable
define linkonce_odr void @_ZNSt6vectorIN32pxrInternal_v0_24__pxrReserved__9HgiHandleINS0_10HgiSamplerEEESaIS3_EEC2Ev(ptr noundef nonnull align 8 dereferenceable(24) %0) unnamed_addr #1 comdat align 2 {
  %2 = alloca ptr, align 8
  store ptr %0, ptr %2, align 8
  %3 = load ptr, ptr %2, align 8
  call void @_ZNSt12_Vector_baseIN32pxrInternal_v0_24__pxrReserved__9HgiHandleINS0_10HgiSamplerEEESaIS3_EEC2Ev(ptr noundef nonnull align 8 dereferenceable(24) %3) #10
  ret void
}

; Function Attrs: mustprogress nounwind uwtable
define linkonce_odr void @_ZNSt6vectorIN32pxrInternal_v0_24__pxrReserved__9HgiHandleINS0_10HgiTextureEEESaIS3_EEC2Ev(ptr noundef nonnull align 8 dereferenceable(24) %0) unnamed_addr #1 comdat align 2 {
  %2 = alloca ptr, align 8
  store ptr %0, ptr %2, align 8
  %3 = load ptr, ptr %2, align 8
  call void @_ZNSt12_Vector_baseIN32pxrInternal_v0_24__pxrReserved__9HgiHandleINS0_10HgiTextureEEESaIS3_EEC2Ev(ptr noundef nonnull align 8 dereferenceable(24) %3) #10
  ret void
}

; Function Attrs: mustprogress nounwind uwtable
define void @_ZN32pxrInternal_v0_24__pxrReserved__18HgiTextureBindDescC2Ev(ptr noundef nonnull align 8 dereferenceable(61) %0) unnamed_addr #1 align 2 {
  %2 = alloca ptr, align 8
  store ptr %0, ptr %2, align 8
  %3 = load ptr, ptr %2, align 8
  %4 = getelementptr inbounds nuw %"struct.pxrInternal_v0_24__pxrReserved__::HgiTextureBindDesc", ptr %3, i32 0, i32 0
  call void @_ZNSt6vectorIN32pxrInternal_v0_24__pxrReserved__9HgiHandleINS0_10HgiTextureEEESaIS3_EEC2Ev(ptr noundef nonnull align 8 dereferenceable(24) %4) #10
  %5 = getelementptr inbounds nuw %"struct.pxrInternal_v0_24__pxrReserved__::HgiTextureBindDesc", ptr %3, i32 0, i32 1
  call void @_ZNSt6vectorIN32pxrInternal_v0_24__pxrReserved__9HgiHandleINS0_10HgiSamplerEEESaIS3_EEC2Ev(ptr noundef nonnull align 8 dereferenceable(24) %5) #10
  %6 = getelementptr inbounds nuw %"struct.pxrInternal_v0_24__pxrReserved__::HgiTextureBindDesc", ptr %3, i32 0, i32 2
  store i32 2, ptr %6, align 8
  %7 = getelementptr inbounds nuw %"struct.pxrInternal_v0_24__pxrReserved__::HgiTextureBindDesc", ptr %3, i32 0, i32 3
  store i32 0, ptr %7, align 4
  %8 = getelementptr inbounds nuw %"struct.pxrInternal_v0_24__pxrReserved__::HgiTextureBindDesc", ptr %3, i32 0, i32 4
  store i32 2, ptr %8, align 8
  %9 = getelementptr inbounds nuw %"struct.pxrInternal_v0_24__pxrReserved__::HgiTextureBindDesc", ptr %3, i32 0, i32 5
  store i8 0, ptr %9, align 4
  ret void
}