; Function Attrs: mustprogress nofree norecurse nosync nounwind willreturn memory(argmem: write) uwtable
define void @_ZN32pxrInternal_v0_24__pxrReserved__18HgiTextureBindDescC2Ev(ptr noundef nonnull writeonly align 8 captures(none) dereferenceable(61) initializes((0, 61)) %0) unnamed_addr #4 align 2 {
  %2 = getelementptr inbounds nuw i8, ptr %0, i64 48
  tail call void @llvm.memset.p0.i64(ptr noundef nonnull align 8 dereferenceable(48) %0, i8 0, i64 48, i1 false)
  store i32 2, ptr %2, align 8
  %3 = getelementptr inbounds nuw i8, ptr %0, i64 52
  store i32 0, ptr %3, align 4
  %4 = getelementptr inbounds nuw i8, ptr %0, i64 56
  store i32 2, ptr %4, align 8
  %5 = getelementptr inbounds nuw i8, ptr %0, i64 60
  store i8 0, ptr %5, align 4
  ret void
}